target datalayout = "e-m:e-p270:32:32-p271:32:32-p272:64:64-i64:64-i128:128-f80:128-n8:16:32:64-S128"
target triple = "x86_64-pc-linux-gnu"

%struct.strbuf = type { i64, i64, ptr }
%struct.dir_struct = type { i32, i32, i32, ptr, ptr, ptr, ptr, %struct.dir_struct_internal }
%struct.dir_struct_internal = type { i32, i32, [3 x %struct.exclude_list_group], ptr, ptr, %struct.strbuf, %struct.oid_stat, %struct.oid_stat, i32, i32, i32 }
%struct.exclude_list_group = type { i32, i32, ptr }
%struct.oid_stat = type { %struct.stat_data, %struct.object_id, i32 }
%struct.stat_data = type { %struct.cache_time, %struct.cache_time, i32, i32, i32, i32, i32 }
%struct.cache_time = type { i32, i32 }
%struct.object_id = type { [32 x i8], i32 }
%struct.hashmap = type { ptr, ptr, ptr, i32, i32, i32, i32, i8 }
%struct.path_pattern = type { ptr, i32, i32, ptr, i32, i32, i32, [0 x i8] }
%struct.pattern_list = type { i32, i32, ptr, ptr, i32, i32, %struct.hashmap, %struct.hashmap }

; Function Attrs: nounwind uwtable
define internal ptr @last_matching_pattern_from_lists(ptr noundef %0, ptr noundef %1, ptr noundef %2, i32 noundef %3, ptr noundef %4, ptr noundef %5) #0 {
  %7 = alloca ptr, align 8
  %8 = alloca ptr, align 8
  %9 = alloca ptr, align 8
  %10 = alloca ptr, align 8
  %11 = alloca i32, align 4
  %12 = alloca ptr, align 8
  %13 = alloca ptr, align 8
  %14 = alloca i32, align 4
  %15 = alloca i32, align 4
  %16 = alloca ptr, align 8
  %17 = alloca ptr, align 8
  %18 = alloca i32, align 4
  store ptr %0, ptr %8, align 8, !tbaa !39
  store ptr %1, ptr %9, align 8, !tbaa !41
  store ptr %2, ptr %10, align 8, !tbaa !13
  store i32 %3, ptr %11, align 4, !tbaa !16
  store ptr %4, ptr %12, align 8, !tbaa !13
  store ptr %5, ptr %13, align 8, !tbaa !103
  call void @llvm.lifetime.start.p0(i64 4, ptr %14) #12
  call void @llvm.lifetime.start.p0(i64 4, ptr %15) #12
  call void @llvm.lifetime.start.p0(i64 8, ptr %16) #12
  call void @llvm.lifetime.start.p0(i64 8, ptr %17) #12
  store i32 0, ptr %14, align 4, !tbaa !16
  br label %19

19:                                               ; preds = %58, %6
  %20 = load i32, ptr %14, align 4, !tbaa !16
  %21 = icmp sle i32 %20, 2
  br i1 %21, label %22, label %61

22:                                               ; preds = %19
  %23 = load ptr, ptr %8, align 8, !tbaa !39
  %24 = getelementptr inbounds nuw %struct.dir_struct, ptr %23, i32 0, i32 7
  %25 = getelementptr inbounds nuw %struct.dir_struct_internal, ptr %24, i32 0, i32 2
  %26 = load i32, ptr %14, align 4, !tbaa !16
  %27 = sext i32 %26 to i64
  %28 = getelementptr inbounds [3 x %struct.exclude_list_group], ptr %25, i64 0, i64 %27
  store ptr %28, ptr %16, align 8, !tbaa !153
  %29 = load ptr, ptr %16, align 8, !tbaa !153
  %30 = getelementptr inbounds nuw %struct.exclude_list_group, ptr %29, i32 0, i32 0
  %31 = load i32, ptr %30, align 8, !tbaa !155
  %32 = sub nsw i32 %31, 1
  store i32 %32, ptr %15, align 4, !tbaa !16
  br label %33

33:                                               ; preds = %54, %22
  %34 = load i32, ptr %15, align 4, !tbaa !16
  %35 = icmp sge i32 %34, 0
  br i1 %35, label %36, label %57

36:                                               ; preds = %33
  %37 = load ptr, ptr %10, align 8, !tbaa !13
  %38 = load i32, ptr %11, align 4, !tbaa !16
  %39 = load ptr, ptr %12, align 8, !tbaa !13
  %40 = load ptr, ptr %13, align 8, !tbaa !103
  %41 = load ptr, ptr %16, align 8, !tbaa !153
  %42 = getelementptr inbounds nuw %struct.exclude_list_group, ptr %41, i32 0, i32 2
  %43 = load ptr, ptr %42, align 8, !tbaa !158
  %44 = load i32, ptr %15, align 4, !tbaa !16
  %45 = sext i32 %44 to i64
  %46 = getelementptr inbounds %struct.pattern_list, ptr %43, i64 %45
  %47 = load ptr, ptr %9, align 8, !tbaa !41
  %48 = call ptr @last_matching_pattern_from_list(ptr noundef %37, i32 noundef %38, ptr noundef %39, ptr noundef %40, ptr noundef %46, ptr noundef %47)
  store ptr %48, ptr %17, align 8, !tbaa !124
  %49 = load ptr, ptr %17, align 8, !tbaa !124
  %50 = icmp ne ptr %49, null
  br i1 %50, label %51, label %53

51:                                               ; preds = %36
  %52 = load ptr, ptr %17, align 8, !tbaa !124
  store ptr %52, ptr %7, align 8
  store i32 1, ptr %18, align 4
  br label %62

53:                                               ; preds = %36
  br label %54

54:                                               ; preds = %53
  %55 = load i32, ptr %15, align 4, !tbaa !16
  %56 = add nsw i32 %55, -1
  store i32 %56, ptr %15, align 4, !tbaa !16
  br label %33, !llvm.loop !178

57:                                               ; preds = %33
  br label %58

58:                                               ; preds = %57
  %59 = load i32, ptr %14, align 4, !tbaa !16
  %60 = add nsw i32 %59, 1
  store i32 %60, ptr %14, align 4, !tbaa !16
  br label %19, !llvm.loop !179

61:                                               ; preds = %19
  store ptr null, ptr %7, align 8
  store i32 1, ptr %18, align 4
  br label %62

62:                                               ; preds = %61, %51
  call void @llvm.lifetime.end.p0(i64 8, ptr %17) #12
  call void @llvm.lifetime.end.p0(i64 8, ptr %16) #12
  call void @llvm.lifetime.end.p0(i64 4, ptr %15) #12
  call void @llvm.lifetime.end.p0(i64 4, ptr %14) #12
  %63 = load ptr, ptr %7, align 8
  ret ptr %63
}

; Function Attrs: nounwind uwtable
define dso_local ptr @last_matching_pattern(ptr noundef %0, ptr noundef %1, ptr noundef %2, ptr noundef %3) #0 {
  %5 = alloca ptr, align 8
  %6 = alloca ptr, align 8
  %7 = alloca ptr, align 8
  %8 = alloca ptr, align 8
  %9 = alloca ptr, align 8
  %10 = alloca i32, align 4
  %11 = alloca ptr, align 8
  %12 = alloca i32, align 4
  store ptr %0, ptr %6, align 8, !tbaa !39
  store ptr %1, ptr %7, align 8, !tbaa !41
  store ptr %2, ptr %8, align 8, !tbaa !13
  store ptr %3, ptr %9, align 8, !tbaa !103
  call void @llvm.lifetime.start.p0(i64 4, ptr %10) #12
  %13 = load ptr, ptr %8, align 8, !tbaa !13
  %14 = call i64 @strlen(ptr noundef %13) #13
  %15 = trunc i64 %14 to i32
  store i32 %15, ptr %10, align 4, !tbaa !16
  call void @llvm.lifetime.start.p0(i64 8, ptr %11) #12
  %16 = load ptr, ptr %8, align 8, !tbaa !13
  %17 = call ptr @strrchr(ptr noundef %16, i32 noundef 47) #13
  store ptr %17, ptr %11, align 8, !tbaa !13
  %18 = load ptr, ptr %11, align 8, !tbaa !13
  %19 = icmp ne ptr %18, null
  br i1 %19, label %20, label %23

20:                                               ; preds = %4
  %21 = load ptr, ptr %11, align 8, !tbaa !13
  %22 = getelementptr inbounds i8, ptr %21, i64 1
  br label %25

23:                                               ; preds = %4
  %24 = load ptr, ptr %8, align 8, !tbaa !13
  br label %25

25:                                               ; preds = %23, %20
  %26 = phi ptr [ %22, %20 ], [ %24, %23 ]
  store ptr %26, ptr %11, align 8, !tbaa !13
  %27 = load ptr, ptr %6, align 8, !tbaa !39
  %28 = load ptr, ptr %7, align 8, !tbaa !41
  %29 = load ptr, ptr %8, align 8, !tbaa !13
  %30 = load ptr, ptr %11, align 8, !tbaa !13
  %31 = load ptr, ptr %8, align 8, !tbaa !13
  %32 = ptrtoint ptr %30 to i64
  %33 = ptrtoint ptr %31 to i64
  %34 = sub i64 %32, %33
  %35 = trunc i64 %34 to i32
  call void @prep_exclude(ptr noundef %27, ptr noundef %28, ptr noundef %29, i32 noundef %35)
  %36 = load ptr, ptr %6, align 8, !tbaa !39
  %37 = getelementptr inbounds nuw %struct.dir_struct, ptr %36, i32 0, i32 7
  %38 = getelementptr inbounds nuw %struct.dir_struct_internal, ptr %37, i32 0, i32 4
  %39 = load ptr, ptr %38, align 8, !tbaa !165
  %40 = icmp ne ptr %39, null
  br i1 %40, label %41, label %46

41:                                               ; preds = %25
  %42 = load ptr, ptr %6, align 8, !tbaa !39
  %43 = getelementptr inbounds nuw %struct.dir_struct, ptr %42, i32 0, i32 7
  %44 = getelementptr inbounds nuw %struct.dir_struct_internal, ptr %43, i32 0, i32 4
  %45 = load ptr, ptr %44, align 8, !tbaa !165
  store ptr %45, ptr %5, align 8
  store i32 1, ptr %12, align 4
  br label %54

46:                                               ; preds = %25
  %47 = load ptr, ptr %6, align 8, !tbaa !39
  %48 = load ptr, ptr %7, align 8, !tbaa !41
  %49 = load ptr, ptr %8, align 8, !tbaa !13
  %50 = load i32, ptr %10, align 4, !tbaa !16
  %51 = load ptr, ptr %11, align 8, !tbaa !13
  %52 = load ptr, ptr %9, align 8, !tbaa !103
  %53 = call ptr @last_matching_pattern_from_lists(ptr noundef %47, ptr noundef %48, ptr noundef %49, i32 noundef %50, ptr noundef %51, ptr noundef %52)
  store ptr %53, ptr %5, align 8
  store i32 1, ptr %12, align 4
  br label %54

54:                                               ; preds = %46, %41
  call void @llvm.lifetime.end.p0(i64 8, ptr %11) #12
  call void @llvm.lifetime.end.p0(i64 4, ptr %10) #12
  %55 = load ptr, ptr %5, align 8
  ret ptr %55
}

; Function Attrs: nounwind uwtable
define dso_local i32 @is_excluded(ptr noundef %0, ptr noundef %1, ptr noundef %2, ptr noundef %3) #0 {
  %5 = alloca i32, align 4
  %6 = alloca ptr, align 8
  %7 = alloca ptr, align 8
  %8 = alloca ptr, align 8
  %9 = alloca ptr, align 8
  %10 = alloca ptr, align 8
  %11 = alloca i32, align 4
  store ptr %0, ptr %6, align 8, !tbaa !39
  store ptr %1, ptr %7, align 8, !tbaa !41
  store ptr %2, ptr %8, align 8, !tbaa !13
  store ptr %3, ptr %9, align 8, !tbaa !103
  call void @llvm.lifetime.start.p0(i64 8, ptr %10) #12
  %12 = load ptr, ptr %6, align 8, !tbaa !39
  %13 = load ptr, ptr %7, align 8, !tbaa !41
  %14 = load ptr, ptr %8, align 8, !tbaa !13
  %15 = load ptr, ptr %9, align 8, !tbaa !103
  %16 = call ptr @last_matching_pattern(ptr noundef %12, ptr noundef %13, ptr noundef %14, ptr noundef %15)
  store ptr %16, ptr %10, align 8, !tbaa !124
  %17 = load ptr, ptr %10, align 8, !tbaa !124
  %18 = icmp ne ptr %17, null
  br i1 %18, label %19, label %26

19:                                               ; preds = %4
  %20 = load ptr, ptr %10, align 8, !tbaa !124
  %21 = getelementptr inbounds nuw %struct.path_pattern, ptr %20, i32 0, i32 5
  %22 = load i32, ptr %21, align 4, !tbaa !16
  %23 = and i32 %22, 16
  %24 = icmp ne i32 %23, 0
  %25 = select i1 %24, i32 0, i32 1
  store i32 %25, ptr %5, align 4
  store i32 1, ptr %11, align 4
  br label %27

26:                                               ; preds = %4
  store i32 0, ptr %5, align 4
  store i32 1, ptr %11, align 4
  br label %27

27:                                               ; preds = %26, %19
  call void @llvm.lifetime.end.p0(i64 8, ptr %10) #12
  %28 = load i32, ptr %5, align 4
  ret i32 %28
}